; Function Attrs: nounwind uwtable
define range(i32 0, 2) i32 @tls1_save_sigalgs(ptr noundef captures(none) %0, ptr noundef captures(none) %1, i32 noundef %2) local_unnamed_addr #2 {
  %4 = getelementptr inbounds nuw i8, ptr %0, i64 24
  %5 = load ptr, ptr %4, align 8, !tbaa !136
  %6 = getelementptr inbounds nuw i8, ptr %5, i64 216
  %7 = load ptr, ptr %6, align 8, !tbaa !137
  %8 = getelementptr inbounds nuw i8, ptr %7, i64 80
  %9 = load i32, ptr %8, align 8, !tbaa !138
  %10 = and i32 %9, 2
  %.not = icmp eq i32 %10, 0
  br i1 %.not, label %tls1_save_u16.exit, label %11

11:                                               ; preds = %3
  %12 = getelementptr inbounds nuw i8, ptr %0, i64 2176
  %13 = load ptr, ptr %12, align 8, !tbaa !127
  %14 = icmp eq ptr %13, null
  br i1 %14, label %tls1_save_u16.exit, label %15

15:                                               ; preds = %11
  %.not9 = icmp eq i32 %2, 0
  %16 = getelementptr i8, ptr %1, i64 8
  %.val.i10 = load i64, ptr %16, align 8, !tbaa !249
  %17 = icmp ne i64 %.val.i10, 0
  %18 = and i64 %.val.i10, 1
  %.not.i11 = icmp eq i64 %18, 0
  %or.cond.i12 = and i1 %17, %.not.i11
  br i1 %.not9, label %43, label %19

19:                                               ; preds = %15
  %20 = getelementptr inbounds nuw i8, ptr %0, i64 1000
  %21 = getelementptr inbounds nuw i8, ptr %0, i64 1016
  br i1 %or.cond.i12, label %22, label %tls1_save_u16.exit

22:                                               ; preds = %19
  %23 = lshr exact i64 %.val.i10, 1
  %24 = tail call noalias ptr @CRYPTO_malloc(i64 noundef %.val.i10, ptr noundef nonnull @.str.2, i32 noundef 3426) #14
  %25 = icmp eq ptr %24, null
  br i1 %25, label %tls1_save_u16.exit, label %.preheader.i

.preheader.i:                                     ; preds = %22
  %.promoted.i = load i64, ptr %16, align 8, !tbaa !249
  br label %26

26:                                               ; preds = %28, %.preheader.i
  %.val.i.i30.i = phi i64 [ %.promoted.i, %.preheader.i ], [ %38, %28 ]
  %.01929.i = phi i64 [ 0, %.preheader.i ], [ %40, %28 ]
  %27 = icmp ult i64 %.val.i.i30.i, 2
  br i1 %27, label %.critedge.i, label %28

28:                                               ; preds = %26
  %29 = load ptr, ptr %1, align 8, !tbaa !250
  %30 = load i8, ptr %29, align 1, !tbaa !141
  %31 = zext i8 %30 to i16
  %32 = shl nuw i16 %31, 8
  %33 = getelementptr inbounds nuw i8, ptr %29, i64 1
  %34 = load i8, ptr %33, align 1, !tbaa !141
  %35 = zext i8 %34 to i16
  %36 = or disjoint i16 %32, %35
  %37 = getelementptr inbounds nuw i8, ptr %29, i64 2
  store ptr %37, ptr %1, align 8, !tbaa !250
  %38 = add i64 %.val.i.i30.i, -2
  store i64 %38, ptr %16, align 8, !tbaa !249
  %39 = getelementptr inbounds nuw i16, ptr %24, i64 %.01929.i
  store i16 %36, ptr %39, align 2, !tbaa !93
  %40 = add nuw nsw i64 %.01929.i, 1
  %exitcond.not.i = icmp eq i64 %40, %23
  br i1 %exitcond.not.i, label %.critedge.thread.i, label %26, !llvm.loop !271

.critedge.i:                                      ; preds = %26
  %.not24.i = icmp eq i64 %.01929.i, %23
  br i1 %.not24.i, label %.critedge.thread.i, label %41

41:                                               ; preds = %.critedge.i
  tail call void @CRYPTO_free(ptr noundef nonnull %24, ptr noundef nonnull @.str.2, i32 noundef 3432) #14
  br label %tls1_save_u16.exit

.critedge.thread.i:                               ; preds = %28, %.critedge.i
  %42 = load ptr, ptr %20, align 8, !tbaa !131
  tail call void @CRYPTO_free(ptr noundef %42, ptr noundef nonnull @.str.2, i32 noundef 3436) #14
  store ptr %24, ptr %20, align 8, !tbaa !131
  store i64 %23, ptr %21, align 8, !tbaa !105
  br label %tls1_save_u16.exit

43:                                               ; preds = %15
  %44 = getelementptr inbounds nuw i8, ptr %0, i64 992
  %45 = getelementptr inbounds nuw i8, ptr %0, i64 1008
  br i1 %or.cond.i12, label %46, label %tls1_save_u16.exit

46:                                               ; preds = %43
  %47 = lshr exact i64 %.val.i10, 1
  %48 = tail call noalias ptr @CRYPTO_malloc(i64 noundef %.val.i10, ptr noundef nonnull @.str.2, i32 noundef 3426) #14
  %49 = icmp eq ptr %48, null
  br i1 %49, label %tls1_save_u16.exit, label %.preheader.i14

.preheader.i14:                                   ; preds = %46
  %.promoted.i15 = load i64, ptr %16, align 8, !tbaa !249
  br label %50

50:                                               ; preds = %52, %.preheader.i14
  %.val.i.i30.i16 = phi i64 [ %.promoted.i15, %.preheader.i14 ], [ %62, %52 ]
  %.01929.i17 = phi i64 [ 0, %.preheader.i14 ], [ %64, %52 ]
  %51 = icmp ult i64 %.val.i.i30.i16, 2
  br i1 %51, label %.critedge.i20, label %52

52:                                               ; preds = %50
  %53 = load ptr, ptr %1, align 8, !tbaa !250
  %54 = load i8, ptr %53, align 1, !tbaa !141
  %55 = zext i8 %54 to i16
  %56 = shl nuw i16 %55, 8
  %57 = getelementptr inbounds nuw i8, ptr %53, i64 1
  %58 = load i8, ptr %57, align 1, !tbaa !141
  %59 = zext i8 %58 to i16
  %60 = or disjoint i16 %56, %59
  %61 = getelementptr inbounds nuw i8, ptr %53, i64 2
  store ptr %61, ptr %1, align 8, !tbaa !250
  %62 = add i64 %.val.i.i30.i16, -2
  store i64 %62, ptr %16, align 8, !tbaa !249
  %63 = getelementptr inbounds nuw i16, ptr %48, i64 %.01929.i17
  store i16 %60, ptr %63, align 2, !tbaa !93
  %64 = add nuw nsw i64 %.01929.i17, 1
  %exitcond.not.i18 = icmp eq i64 %64, %47
  br i1 %exitcond.not.i18, label %.critedge.thread.i19, label %50, !llvm.loop !271

.critedge.i20:                                    ; preds = %50
  %.not24.i21 = icmp eq i64 %.01929.i17, %47
  br i1 %.not24.i21, label %.critedge.thread.i19, label %65

65:                                               ; preds = %.critedge.i20
  tail call void @CRYPTO_free(ptr noundef nonnull %48, ptr noundef nonnull @.str.2, i32 noundef 3432) #14
  br label %tls1_save_u16.exit

.critedge.thread.i19:                             ; preds = %52, %.critedge.i20
  %66 = load ptr, ptr %44, align 8, !tbaa !131
  tail call void @CRYPTO_free(ptr noundef %66, ptr noundef nonnull @.str.2, i32 noundef 3436) #14
  store ptr %48, ptr %44, align 8, !tbaa !131
  store i64 %47, ptr %45, align 8, !tbaa !105
  br label %tls1_save_u16.exit

tls1_save_u16.exit:                               ; preds = %.critedge.thread.i19, %65, %46, %43, %.critedge.thread.i, %41, %22, %19, %11, %3
  %.0 = phi i32 [ 1, %3 ], [ 0, %11 ], [ 0, %41 ], [ 1, %.critedge.thread.i ], [ 0, %19 ], [ 0, %22 ], [ 0, %65 ], [ 1, %.critedge.thread.i19 ], [ 0, %43 ], [ 0, %46 ]
  ret i32 %.0
}